target datalayout = "e-m:e-p270:32:32-p271:32:32-p272:64:64-i64:64-i128:128-f80:128-n8:16:32:64-S128"
target triple = "x86_64-pc-linux-gnu"

; Function Attrs: nounwind uwtable
define i32 @If_ManNodeShape(ptr noundef %0, ptr noundef %1, ptr noundef %2, i32 noundef %3) #0 {
  %5 = alloca i32, align 4
  %6 = alloca ptr, align 8
  %7 = alloca ptr, align 8
  %8 = alloca ptr, align 8
  %9 = alloca i32, align 4
  %10 = alloca i32, align 4
  %11 = alloca i32, align 4
  store ptr %0, ptr %6, align 8, !tbaa !3
  store ptr %1, ptr %7, align 8, !tbaa !8
  store ptr %2, ptr %8, align 8, !tbaa !46
  store i32 %3, ptr %9, align 4, !tbaa !23
  call void @llvm.lifetime.start.p0(i64 4, ptr %10) #9
  %12 = load ptr, ptr %6, align 8, !tbaa !3
  %13 = load ptr, ptr %7, align 8, !tbaa !8
  %14 = load ptr, ptr %8, align 8, !tbaa !46
  %15 = call i32 @If_ManNodeShapeMap(ptr noundef %12, ptr noundef %13, ptr noundef %14)
  store i32 %15, ptr %10, align 4, !tbaa !23
  %16 = load i32, ptr %9, align 4, !tbaa !23
  %17 = icmp ne i32 %16, 0
  br i1 %17, label %18, label %24

18:                                               ; preds = %4
  %19 = load ptr, ptr %6, align 8, !tbaa !3
  %20 = load ptr, ptr %7, align 8, !tbaa !8
  %21 = load ptr, ptr %8, align 8, !tbaa !46
  %22 = call i32 @If_ManCheckShape(ptr noundef %19, ptr noundef %20, ptr noundef %21)
  %23 = icmp ne i32 %22, 0
  br i1 %23, label %24, label %25

24:                                               ; preds = %18, %4
  store i32 1, ptr %5, align 4
  store i32 1, ptr %11, align 4
  br label %34

25:                                               ; preds = %18
  %26 = load ptr, ptr %6, align 8, !tbaa !3
  %27 = load ptr, ptr %7, align 8, !tbaa !8
  %28 = load ptr, ptr %8, align 8, !tbaa !46
  %29 = call i32 @If_ManNodeShapeMap2(ptr noundef %26, ptr noundef %27, ptr noundef %28)
  store i32 %29, ptr %10, align 4, !tbaa !23
  %30 = load ptr, ptr %6, align 8, !tbaa !3
  %31 = load ptr, ptr %7, align 8, !tbaa !8
  %32 = load ptr, ptr %8, align 8, !tbaa !46
  %33 = call i32 @If_ManCheckShape(ptr noundef %30, ptr noundef %31, ptr noundef %32)
  store i32 %33, ptr %10, align 4, !tbaa !23
  store i32 1, ptr %5, align 4
  store i32 1, ptr %11, align 4
  br label %34

34:                                               ; preds = %25, %24
  call void @llvm.lifetime.end.p0(i64 4, ptr %10) #9
  %35 = load i32, ptr %5, align 4
  ret i32 %35
}