; Function Attrs: nounwind uwtable
define noundef i32 @If_ManNodeShape(ptr noundef %0, ptr noundef %1, ptr noundef %2, i32 noundef %3) local_unnamed_addr #0 {
  %5 = tail call i32 @If_ManNodeShapeMap(ptr noundef %0, ptr noundef %1, ptr noundef %2)
  %.not = icmp eq i32 %3, 0
  br i1 %.not, label %11, label %6

6:                                                ; preds = %4
  %7 = tail call i32 @If_ManCheckShape(ptr noundef %0, ptr noundef %1, ptr noundef %2)
  %.not13 = icmp eq i32 %7, 0
  br i1 %.not13, label %8, label %11

8:                                                ; preds = %6
  %9 = tail call i32 @If_ManNodeShapeMap2(ptr noundef %0, ptr noundef %1, ptr noundef %2)
  %10 = tail call i32 @If_ManCheckShape(ptr noundef %0, ptr noundef %1, ptr noundef %2)
  br label %11

11:                                               ; preds = %4, %6, %8
  ret i32 1
}